; Function Attrs: nounwind uwtable
define ptr @l___private_Lean_Elab_PreDefinition_Structural_BRecOn_0__Lean_Elab_Structural_toBelowAux___lambda__6(ptr noundef %0, ptr noundef %1, ptr noundef %2, ptr noundef %3, ptr noundef %4, ptr noundef %5, ptr noundef %6, ptr readnone captures(none) %7, ptr noundef %8, ptr noundef %9, ptr noundef %10, ptr noundef %11, ptr noundef %12) local_unnamed_addr #0 {
lean_dec.exit30:
  %13 = getelementptr i8, ptr %0, i64 8
  %.val36 = load i64, ptr %13, align 8, !tbaa !12
  %14 = shl i64 %.val36, 1
  %15 = or disjoint i64 %14, 1
  %16 = inttoptr i64 %15 to ptr
  %17 = getelementptr i8, ptr %1, i64 8
  %.val = load i64, ptr %17, align 8, !tbaa !12
  %18 = and i64 %.val, 9223372036854775807
  %19 = and i64 %.val36, 9223372036854775807
  %20 = icmp samesign ult i64 %19, %18
  %21 = sub nuw nsw i64 %19, %18
  %22 = shl nuw i64 %21, 1
  %23 = or disjoint i64 %22, 1
  %24 = inttoptr i64 %23 to ptr
  %.1.i = select i1 %20, ptr inttoptr (i64 1 to ptr), ptr %24
  %25 = tail call ptr @l_Array_extract___rarg(ptr noundef nonnull %0, ptr noundef nonnull %.1.i, ptr noundef nonnull %16) #6
  %26 = tail call ptr @l_Lean_Expr_replaceFVars(ptr noundef %2, ptr noundef nonnull %1, ptr noundef %25) #6
  %27 = tail call ptr @l_Lean_mkAppN(ptr noundef %3, ptr noundef %25) #6
  %28 = ptrtoint ptr %25 to i64
  %29 = and i64 %28, 1
  %.not = icmp eq i64 %29, 0
  br i1 %.not, label %30, label %lean_dec.exit

30:                                               ; preds = %lean_dec.exit30
  %31 = load i32, ptr %25, align 4, !tbaa !8
  %32 = icmp sgt i32 %31, 1
  br i1 %32, label %33, label %35, !prof !11

33:                                               ; preds = %30
  %34 = add nsw i32 %31, -1
  store i32 %34, ptr %25, align 4, !tbaa !8
  br label %lean_dec.exit

35:                                               ; preds = %30
  %.not.i34 = icmp eq i32 %31, 0
  br i1 %.not.i34, label %lean_dec.exit, label %36

36:                                               ; preds = %35
  tail call void @lean_dec_ref_cold(ptr noundef nonnull %25) #6
  br label %lean_dec.exit

lean_dec.exit:                                    ; preds = %36, %35, %33, %lean_dec.exit30
  tail call void @lean_inc_heartbeat() #6
  %37 = tail call noalias ptr @mi_malloc_small(i64 noundef 48) #6
  %38 = icmp eq ptr %37, null
  br i1 %38, label %39, label %lean_alloc_closure.exit

39:                                               ; preds = %lean_dec.exit
  tail call void @lean_internal_panic_out_of_memory() #7
  unreachable

lean_alloc_closure.exit:                          ; preds = %lean_dec.exit
  %40 = getelementptr inbounds nuw i8, ptr %37, i64 4
  store i32 1, ptr %37, align 4, !tbaa !8
  store i32 -184549328, ptr %40, align 4
  %41 = getelementptr inbounds nuw i8, ptr %37, i64 8
  store ptr @l___private_Lean_Elab_PreDefinition_Structural_BRecOn_0__Lean_Elab_Structural_toBelowAux___lambda__5___boxed, ptr %41, align 8, !tbaa !4
  %42 = getelementptr inbounds nuw i8, ptr %37, i64 16
  store i16 10, ptr %42, align 8, !tbaa !14
  %43 = getelementptr inbounds nuw i8, ptr %37, i64 18
  store i16 3, ptr %43, align 2, !tbaa !14
  %44 = getelementptr inbounds nuw i8, ptr %37, i64 24
  store ptr %4, ptr %44, align 8, !tbaa !4
  %45 = getelementptr inbounds nuw i8, ptr %37, i64 32
  store ptr %5, ptr %45, align 8, !tbaa !4
  %46 = getelementptr inbounds nuw i8, ptr %37, i64 40
  store ptr %6, ptr %46, align 8, !tbaa !4
  %47 = tail call ptr @l_Lean_Elab_Structural_searchPProd___rarg(ptr noundef %26, ptr noundef %27, ptr noundef nonnull %37, ptr noundef %8, ptr noundef %9, ptr noundef %10, ptr noundef %11, ptr noundef %12)
  ret ptr %47
}